; Function Attrs: nounwind uwtable
define range(i32 0, 2) i32 @dt_camctl_camera_property_exists(ptr noundef readonly captures(none) %0, ptr noundef %1, ptr noundef %2) local_unnamed_addr #0 {
  %4 = alloca ptr, align 8
  %.not = icmp eq ptr %1, null
  br i1 %.not, label %5, label %17

5:                                                ; preds = %3
  %6 = getelementptr inbounds nuw i8, ptr %0, i64 144
  %7 = load ptr, ptr %6, align 8, !tbaa !6
  %8 = icmp eq ptr %7, null
  br i1 %8, label %9, label %17

9:                                                ; preds = %5
  %10 = getelementptr inbounds nuw i8, ptr %0, i64 136
  %11 = load ptr, ptr %10, align 8, !tbaa !61
  %12 = icmp eq ptr %11, null
  br i1 %12, label %13, label %17

13:                                               ; preds = %9
  %14 = load i32, ptr getelementptr inbounds nuw (i8, ptr @darktable, i64 8), align 8, !tbaa !19
  %15 = and i32 %14, 32
  %.not16 = icmp eq i32 %15, 0
  br i1 %.not16, label %32, label %16

16:                                               ; preds = %13
  tail call void (ptr, ...) @dt_print_ext(ptr noundef nonnull @.str.28) #15
  br label %32

17:                                               ; preds = %9, %5, %3
  %.011 = phi ptr [ %1, %3 ], [ %11, %9 ], [ %7, %5 ]
  %18 = getelementptr inbounds nuw i8, ptr %.011, i64 32784
  %19 = load ptr, ptr %18, align 8, !tbaa !96
  %20 = icmp eq ptr %19, null
  br i1 %20, label %21, label %25

21:                                               ; preds = %17
  %22 = load i32, ptr getelementptr inbounds nuw (i8, ptr @darktable, i64 8), align 8, !tbaa !19
  %23 = and i32 %22, 32
  %.not17 = icmp eq i32 %23, 0
  br i1 %.not17, label %32, label %24

24:                                               ; preds = %21
  tail call void (ptr, ...) @dt_print_ext(ptr noundef nonnull @.str.29) #15
  br label %32

25:                                               ; preds = %17
  %26 = getelementptr inbounds nuw i8, ptr %.011, i64 32800
  %27 = tail call i32 @pthread_mutex_lock(ptr noundef nonnull %26) #15
  call void @llvm.lifetime.start.p0(i64 8, ptr nonnull %4) #15
  %28 = load ptr, ptr %18, align 8, !tbaa !96
  %29 = call i32 @gp_widget_get_child_by_name(ptr noundef %28, ptr noundef %2, ptr noundef nonnull %4) #15
  %30 = icmp eq i32 %29, 0
  %spec.select = zext i1 %30 to i32
  %31 = call i32 @pthread_mutex_unlock(ptr noundef nonnull %26) #15
  call void @llvm.lifetime.end.p0(i64 8, ptr nonnull %4) #15
  br label %32

32:                                               ; preds = %25, %24, %21, %13, %16
  %.0 = phi i32 [ 0, %16 ], [ 0, %13 ], [ %spec.select, %25 ], [ 0, %24 ], [ 0, %21 ]
  ret i32 %.0
}